target datalayout = "e-m:e-p270:32:32-p271:32:32-p272:64:64-i64:64-i128:128-f80:128-n8:16:32:64-S128"
target triple = "x86_64-pc-linux-gnu"

%struct.AVFormatContext = type { ptr, ptr, ptr, ptr, ptr, i32, i32, ptr, i32, ptr, i32, ptr, ptr, i64, i64, i64, i32, i32, i32, i64, i64, ptr, i32, i32, ptr, i32, i32, i32, i32, ptr, i64, i32, i32, %struct.AVIOInterruptCB, i32, i32, i32, i32, i64, i32, i32, i32, i32, i32, i32, i32, i32, i32, i32, i32, i32, i64, i32, i32, i32, i32, i32, ptr, ptr, ptr, ptr, i32, ptr, ptr, ptr, ptr, i32, ptr, ptr, i64, ptr, ptr, ptr, i64 }
%struct.AVIOInterruptCB = type { ptr, ptr }
%struct.ASFContext = type { i32, i32, i32, i64, i64, i32, i64, i32, i32, i32, i64, i64, i64, i64, i64, i64, i32, [128 x ptr], [128 x %struct.ASFStreamData], i32, i32, i64, i64, i8, i32, i64, i32, i32, i64, i32, i16, i64, i32, i32 }
%struct.ASFStreamData = type { [32 x i8], ptr, %struct.AVRational }
%struct.AVRational = type { i32, i32 }
%struct.ASFStream = type { i8, i32, i32, i32, i8, i16, i16, i16, %struct.ASFPacket }
%struct.ASFPacket = type { ptr, i64, i32, i32, i32, i32, i32, i8 }

@.str.51 = private unnamed_addr constant [43 x i8] c"Skipping failed in asf_read_simple_index.\0A\00", align 1

; Function Attrs: alwaysinline nounwind uwtable
define internal i64 @avio_tell(ptr noundef %0) #1 {
  %2 = alloca ptr, align 8
  store ptr %0, ptr %2, align 8, !tbaa !33
  %3 = load ptr, ptr %2, align 8, !tbaa !33
  %4 = call i64 @avio_seek(ptr noundef %3, i64 noundef 0, i32 noundef 1)
  ret i64 %4
}

; Function Attrs: nounwind uwtable
define internal void @align_position(ptr noundef %0, i64 noundef %1, i64 noundef %2) #0 {
  %4 = alloca ptr, align 8
  %5 = alloca i64, align 8
  %6 = alloca i64, align 8
  store ptr %0, ptr %4, align 8, !tbaa !33
  store i64 %1, ptr %5, align 8, !tbaa !47
  store i64 %2, ptr %6, align 8, !tbaa !47
  %7 = load i64, ptr %6, align 8, !tbaa !47
  %8 = load i64, ptr %5, align 8, !tbaa !47
  %9 = sub nsw i64 9223372036854775807, %8
  %10 = icmp ult i64 %7, %9
  br i1 %10, label %11, label %24

11:                                               ; preds = %3
  %12 = load ptr, ptr %4, align 8, !tbaa !33
  %13 = call i64 @avio_tell(ptr noundef %12)
  %14 = load i64, ptr %5, align 8, !tbaa !47
  %15 = load i64, ptr %6, align 8, !tbaa !47
  %16 = add i64 %14, %15
  %17 = icmp ne i64 %13, %16
  br i1 %17, label %18, label %24

18:                                               ; preds = %11
  %19 = load ptr, ptr %4, align 8, !tbaa !33
  %20 = load i64, ptr %5, align 8, !tbaa !47
  %21 = load i64, ptr %6, align 8, !tbaa !47
  %22 = add i64 %20, %21
  %23 = call i64 @avio_seek(ptr noundef %19, i64 noundef %22, i32 noundef 0)
  br label %24

24:                                               ; preds = %18, %11, %3
  ret void
}

; Function Attrs: nounwind uwtable
define internal i32 @asf_read_simple_index(ptr noundef %0, ptr noundef %1) #0 {
  %3 = alloca i32, align 4
  %4 = alloca ptr, align 8
  %5 = alloca ptr, align 8
  %6 = alloca ptr, align 8
  %7 = alloca ptr, align 8
  %8 = alloca ptr, align 8
  %9 = alloca i64, align 8
  %10 = alloca i32, align 4
  %11 = alloca i32, align 4
  %12 = alloca i32, align 4
  %13 = alloca i32, align 4
  %14 = alloca i64, align 8
  %15 = alloca i64, align 8
  %16 = alloca i32, align 4
  store ptr %0, ptr %4, align 8, !tbaa !13
  store ptr %1, ptr %5, align 8, !tbaa !34
  call void @llvm.lifetime.start.p0(i64 8, ptr %6) #10
  %17 = load ptr, ptr %4, align 8, !tbaa !13
  %18 = getelementptr inbounds nuw %struct.AVFormatContext, ptr %17, i32 0, i32 3
  %19 = load ptr, ptr %18, align 8, !tbaa !15
  store ptr %19, ptr %6, align 8, !tbaa !30
  call void @llvm.lifetime.start.p0(i64 8, ptr %7) #10
  %20 = load ptr, ptr %4, align 8, !tbaa !13
  %21 = getelementptr inbounds nuw %struct.AVFormatContext, ptr %20, i32 0, i32 4
  %22 = load ptr, ptr %21, align 8, !tbaa !32
  store ptr %22, ptr %7, align 8, !tbaa !33
  call void @llvm.lifetime.start.p0(i64 8, ptr %8) #10
  store ptr null, ptr %8, align 8, !tbaa !62
  call void @llvm.lifetime.start.p0(i64 8, ptr %9) #10
  call void @llvm.lifetime.start.p0(i64 4, ptr %10) #10
  call void @llvm.lifetime.start.p0(i64 4, ptr %11) #10
  call void @llvm.lifetime.start.p0(i64 4, ptr %12) #10
  store i32 -1, ptr %12, align 4, !tbaa !42
  call void @llvm.lifetime.start.p0(i64 4, ptr %13) #10
  call void @llvm.lifetime.start.p0(i64 8, ptr %14) #10
  call void @llvm.lifetime.start.p0(i64 8, ptr %15) #10
  %23 = load ptr, ptr %7, align 8, !tbaa !33
  %24 = call i64 @avio_rl64(ptr noundef %23)
  store i64 %24, ptr %15, align 8, !tbaa !47
  %25 = load i64, ptr %15, align 8, !tbaa !47
  %26 = icmp ult i64 %25, 24
  br i1 %26, label %27, label %28

27:                                               ; preds = %2
  store i32 -1094995529, ptr %3, align 4
  store i32 1, ptr %16, align 4
  br label %163

28:                                               ; preds = %2
  store i32 0, ptr %13, align 4, !tbaa !42
  br label %29

29:                                               ; preds = %78, %28
  %30 = load i32, ptr %13, align 4, !tbaa !42
  %31 = load ptr, ptr %6, align 8, !tbaa !30
  %32 = getelementptr inbounds nuw %struct.ASFContext, ptr %31, i32 0, i32 19
  %33 = load i32, ptr %32, align 8, !tbaa !52
  %34 = icmp slt i32 %30, %33
  br i1 %34, label %35, label %81

35:                                               ; preds = %29
  %36 = load ptr, ptr %6, align 8, !tbaa !30
  %37 = getelementptr inbounds nuw %struct.ASFContext, ptr %36, i32 0, i32 17
  %38 = load i32, ptr %13, align 4, !tbaa !42
  %39 = sext i32 %38 to i64
  %40 = getelementptr inbounds [128 x ptr], ptr %37, i64 0, i64 %39
  %41 = load ptr, ptr %40, align 8, !tbaa !53
  %42 = getelementptr inbounds nuw %struct.ASFStream, ptr %41, i32 0, i32 2
  %43 = load i32, ptr %42, align 8, !tbaa !96
  %44 = icmp eq i32 %43, 0
  br i1 %44, label %45, label %77

45:                                               ; preds = %35
  %46 = load ptr, ptr %6, align 8, !tbaa !30
  %47 = getelementptr inbounds nuw %struct.ASFContext, ptr %46, i32 0, i32 17
  %48 = load i32, ptr %13, align 4, !tbaa !42
  %49 = sext i32 %48 to i64
  %50 = getelementptr inbounds [128 x ptr], ptr %47, i64 0, i64 %49
  %51 = load ptr, ptr %50, align 8, !tbaa !53
  %52 = getelementptr inbounds nuw %struct.ASFStream, ptr %51, i32 0, i32 3
  %53 = load i32, ptr %52, align 4, !tbaa !140
  %54 = icmp ne i32 %53, 0
  br i1 %54, label %77, label %55

55:                                               ; preds = %45
  %56 = load ptr, ptr %6, align 8, !tbaa !30
  %57 = getelementptr inbounds nuw %struct.ASFContext, ptr %56, i32 0, i32 17
  %58 = load i32, ptr %13, align 4, !tbaa !42
  %59 = sext i32 %58 to i64
  %60 = getelementptr inbounds [128 x ptr], ptr %57, i64 0, i64 %59
  %61 = load ptr, ptr %60, align 8, !tbaa !53
  %62 = getelementptr inbounds nuw %struct.ASFStream, ptr %61, i32 0, i32 3
  store i32 1, ptr %62, align 4, !tbaa !140
  %63 = load ptr, ptr %4, align 8, !tbaa !13
  %64 = getelementptr inbounds nuw %struct.AVFormatContext, ptr %63, i32 0, i32 7
  %65 = load ptr, ptr %64, align 8, !tbaa !60
  %66 = load ptr, ptr %6, align 8, !tbaa !30
  %67 = getelementptr inbounds nuw %struct.ASFContext, ptr %66, i32 0, i32 17
  %68 = load i32, ptr %13, align 4, !tbaa !42
  %69 = sext i32 %68 to i64
  %70 = getelementptr inbounds [128 x ptr], ptr %67, i64 0, i64 %69
  %71 = load ptr, ptr %70, align 8, !tbaa !53
  %72 = getelementptr inbounds nuw %struct.ASFStream, ptr %71, i32 0, i32 1
  %73 = load i32, ptr %72, align 4, !tbaa !61
  %74 = sext i32 %73 to i64
  %75 = getelementptr inbounds ptr, ptr %65, i64 %74
  %76 = load ptr, ptr %75, align 8, !tbaa !62
  store ptr %76, ptr %8, align 8, !tbaa !62
  br label %81

77:                                               ; preds = %45, %35
  br label %78

78:                                               ; preds = %77
  %79 = load i32, ptr %13, align 4, !tbaa !42
  %80 = add nsw i32 %79, 1
  store i32 %80, ptr %13, align 4, !tbaa !42
  br label %29, !llvm.loop !141

81:                                               ; preds = %55, %29
  %82 = load ptr, ptr %8, align 8, !tbaa !62
  %83 = icmp ne ptr %82, null
  br i1 %83, label %89, label %84

84:                                               ; preds = %81
  %85 = load ptr, ptr %7, align 8, !tbaa !33
  %86 = load i64, ptr %15, align 8, !tbaa !47
  %87 = sub i64 %86, 24
  %88 = call i64 @avio_skip(ptr noundef %85, i64 noundef %87)
  store i32 0, ptr %3, align 4
  store i32 1, ptr %16, align 4
  br label %163

89:                                               ; preds = %81
  %90 = load ptr, ptr %7, align 8, !tbaa !33
  %91 = call i64 @avio_skip(ptr noundef %90, i64 noundef 16)
  %92 = load ptr, ptr %7, align 8, !tbaa !33
  %93 = call i64 @avio_rl64(ptr noundef %92)
  store i64 %93, ptr %9, align 8, !tbaa !47
  %94 = load ptr, ptr %7, align 8, !tbaa !33
  %95 = call i64 @avio_skip(ptr noundef %94, i64 noundef 4)
  %96 = load ptr, ptr %7, align 8, !tbaa !33
  %97 = call i32 @avio_rl32(ptr noundef %96)
  store i32 %97, ptr %11, align 4, !tbaa !42
  store i32 0, ptr %13, align 4, !tbaa !42
  br label %98

98:                                               ; preds = %152, %89
  %99 = load i32, ptr %13, align 4, !tbaa !42
  %100 = load i32, ptr %11, align 4, !tbaa !42
  %101 = icmp ult i32 %99, %100
  br i1 %101, label %102, label %155

102:                                              ; preds = %98
  %103 = load ptr, ptr %7, align 8, !tbaa !33
  %104 = call i32 @avio_rl32(ptr noundef %103)
  store i32 %104, ptr %10, align 4, !tbaa !42
  %105 = load ptr, ptr %7, align 8, !tbaa !33
  %106 = call i64 @avio_skip(ptr noundef %105, i64 noundef 2)
  store i64 %106, ptr %14, align 8, !tbaa !47
  %107 = load i64, ptr %14, align 8, !tbaa !47
  %108 = icmp slt i64 %107, 0
  br i1 %108, label %109, label %113

109:                                              ; preds = %102
  %110 = load ptr, ptr %4, align 8, !tbaa !13
  call void (ptr, i32, ptr, ...) @av_log(ptr noundef %110, i32 noundef 16, ptr noundef @.str.51)
  %111 = load i64, ptr %14, align 8, !tbaa !47
  %112 = trunc i64 %111 to i32
  store i32 %112, ptr %3, align 4
  store i32 1, ptr %16, align 4
  br label %163

113:                                              ; preds = %102
  %114 = load ptr, ptr %6, align 8, !tbaa !30
  %115 = getelementptr inbounds nuw %struct.ASFContext, ptr %114, i32 0, i32 14
  %116 = load i64, ptr %115, align 8, !tbaa !51
  %117 = load ptr, ptr %6, align 8, !tbaa !30
  %118 = getelementptr inbounds nuw %struct.ASFContext, ptr %117, i32 0, i32 5
  %119 = load i32, ptr %118, align 8, !tbaa !89
  %120 = load i32, ptr %10, align 4, !tbaa !42
  %121 = mul i32 %119, %120
  %122 = zext i32 %121 to i64
  %123 = sub nsw i64 9223372036854775807, %122
  %124 = icmp sgt i64 %116, %123
  br i1 %124, label %125, label %126

125:                                              ; preds = %113
  store i32 -1094995529, ptr %3, align 4
  store i32 1, ptr %16, align 4
  br label %163

126:                                              ; preds = %113
  %127 = load i32, ptr %12, align 4, !tbaa !42
  %128 = load i32, ptr %10, align 4, !tbaa !42
  %129 = icmp ne i32 %127, %128
  br i1 %129, label %130, label %151

130:                                              ; preds = %126
  %131 = load ptr, ptr %8, align 8, !tbaa !62
  %132 = load ptr, ptr %6, align 8, !tbaa !30
  %133 = getelementptr inbounds nuw %struct.ASFContext, ptr %132, i32 0, i32 14
  %134 = load i64, ptr %133, align 8, !tbaa !51
  %135 = load ptr, ptr %6, align 8, !tbaa !30
  %136 = getelementptr inbounds nuw %struct.ASFContext, ptr %135, i32 0, i32 5
  %137 = load i32, ptr %136, align 8, !tbaa !89
  %138 = load i32, ptr %10, align 4, !tbaa !42
  %139 = mul i32 %137, %138
  %140 = zext i32 %139 to i64
  %141 = add nsw i64 %134, %140
  %142 = load i64, ptr %9, align 8, !tbaa !47
  %143 = load i32, ptr %13, align 4, !tbaa !42
  %144 = sext i32 %143 to i64
  %145 = call i64 @av_rescale(i64 noundef %142, i64 noundef %144, i64 noundef 10000) #11
  %146 = load ptr, ptr %6, align 8, !tbaa !30
  %147 = getelementptr inbounds nuw %struct.ASFContext, ptr %146, i32 0, i32 5
  %148 = load i32, ptr %147, align 8, !tbaa !89
  %149 = call i32 @av_add_index_entry(ptr noundef %131, i64 noundef %141, i64 noundef %145, i32 noundef %148, i32 noundef 0, i32 noundef 1)
  %150 = load i32, ptr %10, align 4, !tbaa !42
  store i32 %150, ptr %12, align 4, !tbaa !42
  br label %151

151:                                              ; preds = %130, %126
  br label %152

152:                                              ; preds = %151
  %153 = load i32, ptr %13, align 4, !tbaa !42
  %154 = add nsw i32 %153, 1
  store i32 %154, ptr %13, align 4, !tbaa !42
  br label %98, !llvm.loop !142

155:                                              ; preds = %98
  %156 = load ptr, ptr %6, align 8, !tbaa !30
  %157 = getelementptr inbounds nuw %struct.ASFContext, ptr %156, i32 0, i32 1
  store i32 1, ptr %157, align 4, !tbaa !39
  %158 = load ptr, ptr %7, align 8, !tbaa !33
  %159 = load ptr, ptr %6, align 8, !tbaa !30
  %160 = getelementptr inbounds nuw %struct.ASFContext, ptr %159, i32 0, i32 12
  %161 = load i64, ptr %160, align 8, !tbaa !41
  %162 = load i64, ptr %15, align 8, !tbaa !47
  call void @align_position(ptr noundef %158, i64 noundef %161, i64 noundef %162)
  store i32 0, ptr %3, align 4
  store i32 1, ptr %16, align 4
  br label %163

163:                                              ; preds = %155, %125, %109, %84, %27
  call void @llvm.lifetime.end.p0(i64 8, ptr %15) #10
  call void @llvm.lifetime.end.p0(i64 8, ptr %14) #10
  call void @llvm.lifetime.end.p0(i64 4, ptr %13) #10
  call void @llvm.lifetime.end.p0(i64 4, ptr %12) #10
  call void @llvm.lifetime.end.p0(i64 4, ptr %11) #10
  call void @llvm.lifetime.end.p0(i64 4, ptr %10) #10
  call void @llvm.lifetime.end.p0(i64 8, ptr %9) #10
  call void @llvm.lifetime.end.p0(i64 8, ptr %8) #10
  call void @llvm.lifetime.end.p0(i64 8, ptr %7) #10
  call void @llvm.lifetime.end.p0(i64 8, ptr %6) #10
  %164 = load i32, ptr %3, align 4
  ret i32 %164
}