; Function Attrs: nounwind uwtable
define internal i32 @asf_read_simple_index(ptr noundef %0, ptr readnone captures(none) %1) #1 {
  %3 = getelementptr inbounds nuw i8, ptr %0, i64 24
  %4 = load ptr, ptr %3, align 8, !tbaa !11
  %5 = getelementptr inbounds nuw i8, ptr %0, i64 32
  %6 = load ptr, ptr %5, align 8, !tbaa !26
  %7 = tail call i64 @avio_rl64(ptr noundef %6) #12
  %8 = icmp ult i64 %7, 24
  br i1 %8, label %align_position.exit, label %.preheader

.preheader:                                       ; preds = %2
  %9 = getelementptr inbounds nuw i8, ptr %4, i64 7288
  %10 = load i32, ptr %9, align 8, !tbaa !44
  %11 = icmp sgt i32 %10, 0
  br i1 %11, label %.lr.ph, label %.thread

.lr.ph:                                           ; preds = %.preheader
  %12 = getelementptr inbounds nuw i8, ptr %4, i64 120
  %wide.trip.count = zext nneg i32 %10 to i64
  br label %13

13:                                               ; preds = %.lr.ph, %22
  %indvars.iv = phi i64 [ 0, %.lr.ph ], [ %indvars.iv.next, %22 ]
  %14 = getelementptr inbounds nuw [128 x ptr], ptr %12, i64 0, i64 %indvars.iv
  %15 = load ptr, ptr %14, align 8, !tbaa !45
  %16 = getelementptr inbounds nuw i8, ptr %15, i64 8
  %17 = load i32, ptr %16, align 8, !tbaa !106
  %18 = icmp eq i32 %17, 0
  br i1 %18, label %19, label %22

19:                                               ; preds = %13
  %20 = getelementptr inbounds nuw i8, ptr %15, i64 12
  %21 = load i32, ptr %20, align 4, !tbaa !141
  %.not = icmp eq i32 %21, 0
  br i1 %.not, label %23, label %22

22:                                               ; preds = %13, %19
  %indvars.iv.next = add nuw nsw i64 %indvars.iv, 1
  %exitcond.not = icmp eq i64 %indvars.iv.next, %wide.trip.count
  br i1 %exitcond.not, label %.thread, label %13, !llvm.loop !142

23:                                               ; preds = %19
  %24 = getelementptr inbounds nuw i8, ptr %15, i64 12
  store i32 1, ptr %24, align 4, !tbaa !141
  %25 = getelementptr inbounds nuw i8, ptr %0, i64 48
  %26 = load ptr, ptr %25, align 8, !tbaa !51
  %27 = getelementptr inbounds nuw i8, ptr %15, i64 4
  %28 = load i32, ptr %27, align 4, !tbaa !52
  %29 = sext i32 %28 to i64
  %30 = getelementptr inbounds ptr, ptr %26, i64 %29
  %31 = load ptr, ptr %30, align 8, !tbaa !53
  %.not56 = icmp eq ptr %31, null
  br i1 %.not56, label %.thread, label %34

.thread:                                          ; preds = %22, %.preheader, %23
  %32 = add i64 %7, -24
  %33 = tail call i64 @avio_skip(ptr noundef %6, i64 noundef %32) #12
  br label %align_position.exit

34:                                               ; preds = %23
  %35 = tail call i64 @avio_skip(ptr noundef %6, i64 noundef 16) #12
  %36 = tail call i64 @avio_rl64(ptr noundef %6) #12
  %37 = tail call i64 @avio_skip(ptr noundef %6, i64 noundef 4) #12
  %38 = tail call i32 @avio_rl32(ptr noundef %6) #12
  %.not68 = icmp eq i32 %38, 0
  br i1 %.not68, label %._crit_edge, label %.lr.ph67

.lr.ph67:                                         ; preds = %34
  %39 = getelementptr inbounds nuw i8, ptr %4, i64 96
  %40 = getelementptr inbounds nuw i8, ptr %4, i64 32
  %wide.trip.count77 = zext i32 %38 to i64
  br label %41

41:                                               ; preds = %.lr.ph67, %59
  %indvars.iv74 = phi i64 [ 0, %.lr.ph67 ], [ %indvars.iv.next75, %59 ]
  %.05065 = phi i32 [ -1, %.lr.ph67 ], [ %.151, %59 ]
  %42 = tail call i32 @avio_rl32(ptr noundef %6) #12
  %43 = tail call i64 @avio_skip(ptr noundef %6, i64 noundef 2) #12
  %44 = icmp slt i64 %43, 0
  br i1 %44, label %45, label %47

45:                                               ; preds = %41
  tail call void (ptr, i32, ptr, ...) @av_log(ptr noundef %0, i32 noundef 16, ptr noundef nonnull @.str.51) #12
  %46 = trunc i64 %43 to i32
  br label %align_position.exit

47:                                               ; preds = %41
  %48 = load i64, ptr %39, align 8, !tbaa !43
  %49 = load i32, ptr %40, align 8, !tbaa !87
  %50 = mul i32 %49, %42
  %51 = zext i32 %50 to i64
  %52 = xor i64 %51, 9223372036854775807
  %53 = icmp sgt i64 %48, %52
  br i1 %53, label %align_position.exit, label %54

54:                                               ; preds = %47
  %.not57 = icmp eq i32 %.05065, %42
  br i1 %.not57, label %59, label %55

55:                                               ; preds = %54
  %56 = add nsw i64 %48, %51
  %57 = tail call i64 @av_rescale(i64 noundef %36, i64 noundef %indvars.iv74, i64 noundef 10000) #14
  %58 = tail call i32 @av_add_index_entry(ptr noundef nonnull %31, i64 noundef %56, i64 noundef %57, i32 noundef %49, i32 noundef 0, i32 noundef 1) #12
  br label %59

59:                                               ; preds = %54, %55
  %.151 = phi i32 [ %42, %55 ], [ %.05065, %54 ]
  %indvars.iv.next75 = add nuw nsw i64 %indvars.iv74, 1
  %exitcond78.not = icmp eq i64 %indvars.iv.next75, %wide.trip.count77
  br i1 %exitcond78.not, label %._crit_edge, label %41, !llvm.loop !143

._crit_edge:                                      ; preds = %59, %34
  %60 = getelementptr inbounds nuw i8, ptr %4, i64 4
  store i32 1, ptr %60, align 4, !tbaa !30
  %61 = getelementptr inbounds nuw i8, ptr %4, i64 80
  %62 = load i64, ptr %61, align 8, !tbaa !32
  %63 = sub nsw i64 9223372036854775807, %62
  %64 = icmp ult i64 %7, %63
  br i1 %64, label %65, label %align_position.exit

65:                                               ; preds = %._crit_edge
  %66 = tail call i64 @avio_seek(ptr noundef %6, i64 noundef 0, i32 noundef 1) #12
  %67 = add i64 %62, %7
  %.not.i = icmp eq i64 %66, %67
  br i1 %.not.i, label %align_position.exit, label %68

68:                                               ; preds = %65
  %69 = tail call i64 @avio_seek(ptr noundef %6, i64 noundef %67, i32 noundef 0) #12
  br label %align_position.exit

align_position.exit:                              ; preds = %47, %68, %65, %._crit_edge, %2, %45, %.thread
  %.0 = phi i32 [ %46, %45 ], [ 0, %.thread ], [ -1094995529, %2 ], [ 0, %._crit_edge ], [ 0, %65 ], [ 0, %68 ], [ -1094995529, %47 ]
  ret i32 %.0
}